target datalayout = "e-m:e-p270:32:32-p271:32:32-p272:64:64-i64:64-i128:128-f80:128-n8:16:32:64-S128"
target triple = "x86_64-unknown-linux-gnu"

%struct.QTailQLink = type { ptr, ptr }
%struct.DriveInfo = type { i32, i32, i32, i32, i8, i32, ptr, %union.anon.1 }
%union.anon.1 = type { %struct.QTailQLink }
%struct.GlobalProperty = type { ptr, ptr, ptr, i8, i8 }

@.str.9 = private unnamed_addr constant [41 x i8] c"../qemu/hw/core/qdev-properties-system.c\00", align 1
@__func__.set_drive_helper = private unnamed_addr constant [17 x i8] c"set_drive_helper\00", align 1
@.str.41 = private unnamed_addr constant [52 x i8] c"Different aio context is not supported for new node\00", align 1
@.str.42 = private unnamed_addr constant [39 x i8] c"Property '%s.%s' can't find value '%s'\00", align 1
@.str.43 = private unnamed_addr constant [138 x i8] c"Drive '%s' is already in use because it has been automatically connected to another device (did you need 'if=none' in the drive options?)\00", align 1
@.str.44 = private unnamed_addr constant [47 x i8] c"Drive '%s' is already in use by another device\00", align 1
@.str.45 = private unnamed_addr constant [7 x i8] c"device\00", align 1
@.str.46 = private unnamed_addr constant [101 x i8] c"/home/dtcxzyw/WorkSpace/Projects/compilers/llvm-opt-benchmark/bench/qemu/qemu/include/hw/qdev-core.h\00", align 1
@__func__.DEVICE = private unnamed_addr constant [7 x i8] c"DEVICE\00", align 1
@__func__.check_prop_still_unset = private unnamed_addr constant [23 x i8] c"check_prop_still_unset\00", align 1
@.str.47 = private unnamed_addr constant [39 x i8] c"-global %s.%s=... conflicts with %s=%s\00", align 1
@.str.48 = private unnamed_addr constant [49 x i8] c"%s=%s conflicts, and override is not implemented\00", align 1

; Function Attrs: nounwind sspstrong uwtable
define internal zeroext i1 @check_prop_still_unset(ptr noundef %obj, ptr noundef %name, ptr noundef %old_val, ptr noundef %new_val, i1 noundef zeroext %allow_override, ptr noundef %errp) #0 {
entry:
  %retval = alloca i1, align 1
  %obj.addr = alloca ptr, align 8
  %name.addr = alloca ptr, align 8
  %old_val.addr = alloca ptr, align 8
  %new_val.addr = alloca ptr, align 8
  %allow_override.addr = alloca i8, align 1
  %errp.addr = alloca ptr, align 8
  %prop = alloca ptr, align 8
  store ptr %obj, ptr %obj.addr, align 8
  store ptr %name, ptr %name.addr, align 8
  store ptr %old_val, ptr %old_val.addr, align 8
  store ptr %new_val, ptr %new_val.addr, align 8
  %frombool = zext i1 %allow_override to i8
  store i8 %frombool, ptr %allow_override.addr, align 1
  store ptr %errp, ptr %errp.addr, align 8
  %0 = load ptr, ptr %obj.addr, align 8
  %1 = load ptr, ptr %name.addr, align 8
  %call = call ptr @qdev_find_global_prop(ptr noundef %0, ptr noundef %1)
  store ptr %call, ptr %prop, align 8
  %2 = load ptr, ptr %old_val.addr, align 8
  %tobool = icmp ne ptr %2, null
  br i1 %tobool, label %lor.lhs.false, label %if.then

lor.lhs.false:                                    ; preds = %entry
  %3 = load ptr, ptr %prop, align 8
  %tobool1 = icmp ne ptr %3, null
  br i1 %tobool1, label %if.end, label %land.lhs.true

land.lhs.true:                                    ; preds = %lor.lhs.false
  %4 = load i8, ptr %allow_override.addr, align 1
  %tobool2 = trunc i8 %4 to i1
  br i1 %tobool2, label %if.then, label %if.end

if.then:                                          ; preds = %land.lhs.true, %entry
  store i1 true, ptr %retval, align 1
  br label %return

if.end:                                           ; preds = %land.lhs.true, %lor.lhs.false
  %5 = load ptr, ptr %prop, align 8
  %tobool3 = icmp ne ptr %5, null
  br i1 %tobool3, label %if.then4, label %if.else

if.then4:                                         ; preds = %if.end
  %6 = load ptr, ptr %errp.addr, align 8
  %7 = load ptr, ptr %prop, align 8
  %driver = getelementptr inbounds %struct.GlobalProperty, ptr %7, i32 0, i32 0
  %8 = load ptr, ptr %driver, align 8
  %9 = load ptr, ptr %prop, align 8
  %property = getelementptr inbounds %struct.GlobalProperty, ptr %9, i32 0, i32 1
  %10 = load ptr, ptr %property, align 8
  %11 = load ptr, ptr %name.addr, align 8
  %12 = load ptr, ptr %new_val.addr, align 8
  call void (ptr, ptr, i32, ptr, ptr, ...) @error_setg_internal(ptr noundef %6, ptr noundef @.str.9, i32 noundef 51, ptr noundef @__func__.check_prop_still_unset, ptr noundef @.str.47, ptr noundef %8, ptr noundef %10, ptr noundef %11, ptr noundef %12)
  br label %if.end5

if.else:                                          ; preds = %if.end
  %13 = load ptr, ptr %errp.addr, align 8
  %14 = load ptr, ptr %name.addr, align 8
  %15 = load ptr, ptr %new_val.addr, align 8
  call void (ptr, ptr, i32, ptr, ptr, ...) @error_setg_internal(ptr noundef %13, ptr noundef @.str.9, i32 noundef 55, ptr noundef @__func__.check_prop_still_unset, ptr noundef @.str.48, ptr noundef %14, ptr noundef %15)
  br label %if.end5

if.end5:                                          ; preds = %if.else, %if.then4
  store i1 false, ptr %retval, align 1
  br label %return

return:                                           ; preds = %if.end5, %if.then
  %16 = load i1, ptr %retval, align 1
  ret i1 %16
}

; Function Attrs: nounwind sspstrong uwtable
define internal ptr @DEVICE(ptr noundef %obj) #0 {
entry:
  %obj.addr = alloca ptr, align 8
  store ptr %obj, ptr %obj.addr, align 8
  %0 = load ptr, ptr %obj.addr, align 8
  %call = call ptr @object_dynamic_cast_assert(ptr noundef %0, ptr noundef @.str.45, ptr noundef @.str.46, i32 noundef 77, ptr noundef @__func__.DEVICE)
  ret ptr %call
}

; Function Attrs: nounwind sspstrong uwtable
define internal void @set_drive_helper(ptr noundef %obj, ptr noundef %v, ptr noundef %name, ptr noundef %opaque, i1 noundef zeroext %iothread, ptr noundef %errp) #0 {
entry:
  %obj.addr = alloca ptr, align 8
  %v.addr = alloca ptr, align 8
  %name.addr = alloca ptr, align 8
  %opaque.addr = alloca ptr, align 8
  %iothread.addr = alloca i8, align 1
  %errp.addr = alloca ptr, align 8
  %dev = alloca ptr, align 8
  %prop = alloca ptr, align 8
  %ptr = alloca ptr, align 8
  %str = alloca ptr, align 8
  %blk = alloca ptr, align 8
  %blk_created = alloca i8, align 1
  %ret = alloca i32, align 4
  %bs = alloca ptr, align 8
  %ctx = alloca ptr, align 8
  %dinfo = alloca ptr, align 8
  store ptr %obj, ptr %obj.addr, align 8
  store ptr %v, ptr %v.addr, align 8
  store ptr %name, ptr %name.addr, align 8
  store ptr %opaque, ptr %opaque.addr, align 8
  %frombool = zext i1 %iothread to i8
  store i8 %frombool, ptr %iothread.addr, align 1
  store ptr %errp, ptr %errp.addr, align 8
  %0 = load ptr, ptr %obj.addr, align 8
  %call = call ptr @DEVICE(ptr noundef %0)
  store ptr %call, ptr %dev, align 8
  %1 = load ptr, ptr %opaque.addr, align 8
  store ptr %1, ptr %prop, align 8
  %2 = load ptr, ptr %obj.addr, align 8
  %3 = load ptr, ptr %prop, align 8
  %call1 = call ptr @object_field_prop_ptr(ptr noundef %2, ptr noundef %3)
  store ptr %call1, ptr %ptr, align 8
  store i8 0, ptr %blk_created, align 1
  %4 = load ptr, ptr %v.addr, align 8
  %5 = load ptr, ptr %name.addr, align 8
  %6 = load ptr, ptr %errp.addr, align 8
  %call2 = call zeroext i1 @visit_type_str(ptr noundef %4, ptr noundef %5, ptr noundef %str, ptr noundef %6)
  br i1 %call2, label %if.end, label %if.then

if.then:                                          ; preds = %entry
  br label %return

if.end:                                           ; preds = %entry
  %7 = load ptr, ptr %obj.addr, align 8
  %8 = load ptr, ptr %name.addr, align 8
  %9 = load ptr, ptr %ptr, align 8
  %10 = load ptr, ptr %9, align 8
  %11 = load ptr, ptr %str, align 8
  %12 = load ptr, ptr %errp.addr, align 8
  %call3 = call zeroext i1 @check_prop_still_unset(ptr noundef %7, ptr noundef %8, ptr noundef %10, ptr noundef %11, i1 noundef zeroext true, ptr noundef %12)
  br i1 %call3, label %if.end5, label %if.then4

if.then4:                                         ; preds = %if.end
  br label %return

if.end5:                                          ; preds = %if.end
  %13 = load ptr, ptr %ptr, align 8
  %14 = load ptr, ptr %13, align 8
  %tobool = icmp ne ptr %14, null
  br i1 %tobool, label %if.then6, label %if.end16

if.then6:                                         ; preds = %if.end5
  %15 = load ptr, ptr %ptr, align 8
  %16 = load ptr, ptr %15, align 8
  store ptr %16, ptr %blk, align 8
  %17 = load ptr, ptr %blk, align 8
  %call7 = call ptr @blk_get_aio_context(ptr noundef %17)
  store ptr %call7, ptr %ctx, align 8
  %18 = load ptr, ptr %str, align 8
  %19 = load ptr, ptr %errp.addr, align 8
  %call8 = call ptr @bdrv_lookup_bs(ptr noundef null, ptr noundef %18, ptr noundef %19)
  store ptr %call8, ptr %bs, align 8
  %20 = load ptr, ptr %bs, align 8
  %tobool9 = icmp ne ptr %20, null
  br i1 %tobool9, label %if.end11, label %if.then10

if.then10:                                        ; preds = %if.then6
  br label %return

if.end11:                                         ; preds = %if.then6
  %21 = load ptr, ptr %ctx, align 8
  %22 = load ptr, ptr %bs, align 8
  %call12 = call ptr @bdrv_get_aio_context(ptr noundef %22)
  %cmp = icmp ne ptr %21, %call12
  br i1 %cmp, label %if.then13, label %if.end14

if.then13:                                        ; preds = %if.end11
  %23 = load ptr, ptr %errp.addr, align 8
  call void (ptr, ptr, i32, ptr, ptr, ...) @error_setg_internal(ptr noundef %23, ptr noundef @.str.9, i32 noundef 120, ptr noundef @__func__.set_drive_helper, ptr noundef @.str.41)
  br label %if.end14

if.end14:                                         ; preds = %if.then13, %if.end11
  %24 = load ptr, ptr %ctx, align 8
  call void @aio_context_acquire(ptr noundef %24)
  %25 = load ptr, ptr %blk, align 8
  %26 = load ptr, ptr %bs, align 8
  %27 = load ptr, ptr %errp.addr, align 8
  %call15 = call i32 @blk_replace_bs(ptr noundef %25, ptr noundef %26, ptr noundef %27)
  %28 = load ptr, ptr %ctx, align 8
  call void @aio_context_release(ptr noundef %28)
  br label %return

if.end16:                                         ; preds = %if.end5
  %29 = load ptr, ptr %str, align 8
  %30 = load i8, ptr %29, align 1
  %tobool17 = icmp ne i8 %30, 0
  br i1 %tobool17, label %if.end19, label %if.then18

if.then18:                                        ; preds = %if.end16
  %31 = load ptr, ptr %str, align 8
  call void @g_free(ptr noundef %31)
  %32 = load ptr, ptr %ptr, align 8
  store ptr null, ptr %32, align 8
  br label %return

if.end19:                                         ; preds = %if.end16
  %33 = load ptr, ptr %str, align 8
  %call20 = call ptr @blk_by_name(ptr noundef %33)
  store ptr %call20, ptr %blk, align 8
  %34 = load ptr, ptr %blk, align 8
  %tobool21 = icmp ne ptr %34, null
  br i1 %tobool21, label %if.end35, label %if.then22

if.then22:                                        ; preds = %if.end19
  %35 = load ptr, ptr %str, align 8
  %call23 = call ptr @bdrv_lookup_bs(ptr noundef null, ptr noundef %35, ptr noundef null)
  store ptr %call23, ptr %bs, align 8
  %36 = load ptr, ptr %bs, align 8
  %tobool24 = icmp ne ptr %36, null
  br i1 %tobool24, label %if.then25, label %if.end34

if.then25:                                        ; preds = %if.then22
  %37 = load ptr, ptr %bs, align 8
  %call26 = call ptr @bdrv_get_aio_context(ptr noundef %37)
  store ptr %call26, ptr %ctx, align 8
  %38 = load i8, ptr %iothread.addr, align 1
  %tobool27 = trunc i8 %38 to i1
  br i1 %tobool27, label %cond.true, label %cond.false

cond.true:                                        ; preds = %if.then25
  %39 = load ptr, ptr %ctx, align 8
  br label %cond.end

cond.false:                                       ; preds = %if.then25
  %call28 = call ptr @qemu_get_aio_context()
  br label %cond.end

cond.end:                                         ; preds = %cond.false, %cond.true
  %cond = phi ptr [ %39, %cond.true ], [ %call28, %cond.false ]
  %call29 = call ptr @blk_new(ptr noundef %cond, i64 noundef 0, i64 noundef 15)
  store ptr %call29, ptr %blk, align 8
  store i8 1, ptr %blk_created, align 1
  %40 = load ptr, ptr %ctx, align 8
  call void @aio_context_acquire(ptr noundef %40)
  %41 = load ptr, ptr %blk, align 8
  %42 = load ptr, ptr %bs, align 8
  %43 = load ptr, ptr %errp.addr, align 8
  %call30 = call i32 @blk_insert_bs(ptr noundef %41, ptr noundef %42, ptr noundef %43)
  store i32 %call30, ptr %ret, align 4
  %44 = load ptr, ptr %ctx, align 8
  call void @aio_context_release(ptr noundef %44)
  %45 = load i32, ptr %ret, align 4
  %cmp31 = icmp slt i32 %45, 0
  br i1 %cmp31, label %if.then32, label %if.end33

if.then32:                                        ; preds = %cond.end
  br label %fail

if.end33:                                         ; preds = %cond.end
  br label %if.end34

if.end34:                                         ; preds = %if.end33, %if.then22
  br label %if.end35

if.end35:                                         ; preds = %if.end34, %if.end19
  %46 = load ptr, ptr %blk, align 8
  %tobool36 = icmp ne ptr %46, null
  br i1 %tobool36, label %if.end39, label %if.then37

if.then37:                                        ; preds = %if.end35
  %47 = load ptr, ptr %errp.addr, align 8
  %48 = load ptr, ptr %dev, align 8
  %call38 = call ptr @object_get_typename(ptr noundef %48)
  %49 = load ptr, ptr %name.addr, align 8
  %50 = load ptr, ptr %str, align 8
  call void (ptr, ptr, i32, ptr, ptr, ...) @error_setg_internal(ptr noundef %47, ptr noundef @.str.9, i32 noundef 162, ptr noundef @__func__.set_drive_helper, ptr noundef @.str.42, ptr noundef %call38, ptr noundef %49, ptr noundef %50)
  br label %fail

if.end39:                                         ; preds = %if.end35
  %51 = load ptr, ptr %blk, align 8
  %52 = load ptr, ptr %dev, align 8
  %call40 = call i32 @blk_attach_dev(ptr noundef %51, ptr noundef %52)
  %cmp41 = icmp slt i32 %call40, 0
  br i1 %cmp41, label %if.then42, label %if.end48

if.then42:                                        ; preds = %if.end39
  %53 = load ptr, ptr %blk, align 8
  %call43 = call ptr @blk_legacy_dinfo(ptr noundef %53)
  store ptr %call43, ptr %dinfo, align 8
  %54 = load ptr, ptr %dinfo, align 8
  %tobool44 = icmp ne ptr %54, null
  br i1 %tobool44, label %land.lhs.true, label %if.else

land.lhs.true:                                    ; preds = %if.then42
  %55 = load ptr, ptr %dinfo, align 8
  %type = getelementptr inbounds %struct.DriveInfo, ptr %55, i32 0, i32 0
  %56 = load i32, ptr %type, align 8
  %cmp45 = icmp ne i32 %56, 0
  br i1 %cmp45, label %if.then46, label %if.else

if.then46:                                        ; preds = %land.lhs.true
  %57 = load ptr, ptr %errp.addr, align 8
  %58 = load ptr, ptr %str, align 8
  call void (ptr, ptr, i32, ptr, ptr, ...) @error_setg_internal(ptr noundef %57, ptr noundef @.str.9, i32 noundef 172, ptr noundef @__func__.set_drive_helper, ptr noundef @.str.43, ptr noundef %58)
  br label %if.end47

if.else:                                          ; preds = %land.lhs.true, %if.then42
  %59 = load ptr, ptr %errp.addr, align 8
  %60 = load ptr, ptr %str, align 8
  call void (ptr, ptr, i32, ptr, ptr, ...) @error_setg_internal(ptr noundef %59, ptr noundef @.str.9, i32 noundef 175, ptr noundef @__func__.set_drive_helper, ptr noundef @.str.44, ptr noundef %60)
  br label %if.end47

if.end47:                                         ; preds = %if.else, %if.then46
  br label %fail

if.end48:                                         ; preds = %if.end39
  %61 = load ptr, ptr %blk, align 8
  %62 = load ptr, ptr %ptr, align 8
  store ptr %61, ptr %62, align 8
  br label %fail

fail:                                             ; preds = %if.end48, %if.end47, %if.then37, %if.then32
  %63 = load i8, ptr %blk_created, align 1
  %tobool49 = trunc i8 %63 to i1
  br i1 %tobool49, label %if.then50, label %if.end51

if.then50:                                        ; preds = %fail
  %64 = load ptr, ptr %blk, align 8
  call void @blk_unref(ptr noundef %64)
  br label %if.end51

if.end51:                                         ; preds = %if.then50, %fail
  %65 = load ptr, ptr %str, align 8
  call void @g_free(ptr noundef %65)
  br label %return

return:                                           ; preds = %if.end51, %if.then18, %if.end14, %if.then10, %if.then4, %if.then
  ret void
}