; Function Attrs: nounwind sspstrong uwtable
define internal fastcc void @set_drive_helper(ptr noundef %obj, ptr noundef %v, ptr noundef %name, ptr noundef %opaque, i1 noundef zeroext %iothread, ptr noundef %errp) unnamed_addr #0 {
entry:
  %str = alloca ptr, align 8
  %call.i = tail call ptr @object_dynamic_cast_assert(ptr noundef %obj, ptr noundef nonnull @.str.45, ptr noundef nonnull @.str.46, i32 noundef 77, ptr noundef nonnull @__func__.DEVICE) #10
  %call1 = tail call ptr @object_field_prop_ptr(ptr noundef %obj, ptr noundef %opaque) #10
  %call2 = call zeroext i1 @visit_type_str(ptr noundef %v, ptr noundef %name, ptr noundef nonnull %str, ptr noundef %errp) #10
  br i1 %call2, label %if.end, label %return

if.end:                                           ; preds = %entry
  %0 = load ptr, ptr %call1, align 8
  %1 = load ptr, ptr %str, align 8
  %call.i37 = call ptr @qdev_find_global_prop(ptr noundef %obj, ptr noundef %name) #10
  %tobool.not.i = icmp eq ptr %0, null
  %tobool1.not.i = icmp eq ptr %call.i37, null
  %or.cond = select i1 %tobool.not.i, i1 true, i1 %tobool1.not.i
  br i1 %or.cond, label %if.end5, label %check_prop_still_unset.exit

check_prop_still_unset.exit:                      ; preds = %if.end
  %2 = load ptr, ptr %call.i37, align 8
  %property.i = getelementptr inbounds nuw i8, ptr %call.i37, i64 8
  %3 = load ptr, ptr %property.i, align 8
  call void (ptr, ptr, i32, ptr, ptr, ...) @error_setg_internal(ptr noundef %errp, ptr noundef nonnull @.str.9, i32 noundef 51, ptr noundef nonnull @__func__.check_prop_still_unset, ptr noundef nonnull @.str.47, ptr noundef %2, ptr noundef %3, ptr noundef %name, ptr noundef %1) #10
  br label %return

if.end5:                                          ; preds = %if.end
  %4 = load ptr, ptr %call1, align 8
  %tobool.not = icmp eq ptr %4, null
  br i1 %tobool.not, label %if.end16, label %if.then6

if.then6:                                         ; preds = %if.end5
  %call7 = call ptr @blk_get_aio_context(ptr noundef nonnull %4) #10
  %5 = load ptr, ptr %str, align 8
  %call8 = call ptr @bdrv_lookup_bs(ptr noundef null, ptr noundef %5, ptr noundef %errp) #10
  %tobool9.not = icmp eq ptr %call8, null
  br i1 %tobool9.not, label %return, label %if.end11

if.end11:                                         ; preds = %if.then6
  %call12 = call ptr @bdrv_get_aio_context(ptr noundef nonnull %call8) #10
  %cmp.not = icmp eq ptr %call7, %call12
  br i1 %cmp.not, label %if.end14, label %if.then13

if.then13:                                        ; preds = %if.end11
  call void (ptr, ptr, i32, ptr, ptr, ...) @error_setg_internal(ptr noundef %errp, ptr noundef nonnull @.str.9, i32 noundef 120, ptr noundef nonnull @__func__.set_drive_helper, ptr noundef nonnull @.str.41) #10
  br label %if.end14

if.end14:                                         ; preds = %if.then13, %if.end11
  call void @aio_context_acquire(ptr noundef %call7) #10
  %call15 = call i32 @blk_replace_bs(ptr noundef nonnull %4, ptr noundef nonnull %call8, ptr noundef %errp) #10
  call void @aio_context_release(ptr noundef %call7) #10
  br label %return

if.end16:                                         ; preds = %if.end5
  %6 = load ptr, ptr %str, align 8
  %7 = load i8, ptr %6, align 1
  %tobool17.not = icmp eq i8 %7, 0
  br i1 %tobool17.not, label %if.then18, label %if.end19

if.then18:                                        ; preds = %if.end16
  call void @g_free(ptr noundef nonnull %6) #10
  store ptr null, ptr %call1, align 8
  br label %return

if.end19:                                         ; preds = %if.end16
  %call20 = call ptr @blk_by_name(ptr noundef nonnull %6) #10
  %tobool21.not = icmp eq ptr %call20, null
  br i1 %tobool21.not, label %if.then22, label %if.end39.thread

if.then22:                                        ; preds = %if.end19
  %8 = load ptr, ptr %str, align 8
  %call23 = call ptr @bdrv_lookup_bs(ptr noundef null, ptr noundef %8, ptr noundef null) #10
  %tobool24.not.not = icmp eq ptr %call23, null
  br i1 %tobool24.not.not, label %if.end51.critedge, label %if.then25

if.then25:                                        ; preds = %if.then22
  %call26 = call ptr @bdrv_get_aio_context(ptr noundef nonnull %call23) #10
  br i1 %iothread, label %cond.end, label %cond.false

cond.false:                                       ; preds = %if.then25
  %call28 = call ptr @qemu_get_aio_context() #10
  br label %cond.end

cond.end:                                         ; preds = %if.then25, %cond.false
  %cond = phi ptr [ %call28, %cond.false ], [ %call26, %if.then25 ]
  %call29 = call ptr @blk_new(ptr noundef %cond, i64 noundef 0, i64 noundef 15) #10
  call void @aio_context_acquire(ptr noundef %call26) #10
  %call30 = call i32 @blk_insert_bs(ptr noundef %call29, ptr noundef nonnull %call23, ptr noundef %errp) #10
  call void @aio_context_release(ptr noundef %call26) #10
  %cmp31 = icmp slt i32 %call30, 0
  br i1 %cmp31, label %if.then50, label %if.end35

if.end35:                                         ; preds = %cond.end
  %tobool36.not = icmp eq ptr %call29, null
  br i1 %tobool36.not, label %fail, label %if.end39

if.end39:                                         ; preds = %if.end35
  %call40 = call i32 @blk_attach_dev(ptr noundef nonnull %call29, ptr noundef %call.i) #10
  %cmp41 = icmp slt i32 %call40, 0
  br i1 %cmp41, label %if.then42, label %if.end48

if.end39.thread:                                  ; preds = %if.end19
  %call4054 = call i32 @blk_attach_dev(ptr noundef nonnull %call20, ptr noundef %call.i) #10
  %cmp4155 = icmp slt i32 %call4054, 0
  br i1 %cmp4155, label %if.then42, label %if.end48.thread

if.end48.thread:                                  ; preds = %if.end39.thread
  store ptr %call20, ptr %call1, align 8
  br label %if.end51

if.then42:                                        ; preds = %if.end39.thread, %if.end39
  %blk.04857 = phi ptr [ %call20, %if.end39.thread ], [ %call29, %if.end39 ]
  %call43 = call ptr @blk_legacy_dinfo(ptr noundef nonnull %blk.04857) #10
  %tobool44.not = icmp eq ptr %call43, null
  br i1 %tobool44.not, label %if.else, label %land.lhs.true

land.lhs.true:                                    ; preds = %if.then42
  %9 = load i32, ptr %call43, align 8
  %cmp45.not = icmp eq i32 %9, 0
  br i1 %cmp45.not, label %if.else, label %if.then46

if.then46:                                        ; preds = %land.lhs.true
  %10 = load ptr, ptr %str, align 8
  call void (ptr, ptr, i32, ptr, ptr, ...) @error_setg_internal(ptr noundef %errp, ptr noundef nonnull @.str.9, i32 noundef 172, ptr noundef nonnull @__func__.set_drive_helper, ptr noundef nonnull @.str.43, ptr noundef %10) #10
  br i1 %tobool21.not, label %if.then50, label %if.end51

if.else:                                          ; preds = %land.lhs.true, %if.then42
  %11 = load ptr, ptr %str, align 8
  call void (ptr, ptr, i32, ptr, ptr, ...) @error_setg_internal(ptr noundef %errp, ptr noundef nonnull @.str.9, i32 noundef 175, ptr noundef nonnull @__func__.set_drive_helper, ptr noundef nonnull @.str.44, ptr noundef %11) #10
  br i1 %tobool21.not, label %if.then50, label %if.end51

if.end48:                                         ; preds = %if.end39
  store ptr %call29, ptr %call1, align 8
  br label %if.then50

fail:                                             ; preds = %if.end35
  %call38 = call ptr @object_get_typename(ptr noundef %call.i) #10
  %12 = load ptr, ptr %str, align 8
  call void (ptr, ptr, i32, ptr, ptr, ...) @error_setg_internal(ptr noundef %errp, ptr noundef nonnull @.str.9, i32 noundef 162, ptr noundef nonnull @__func__.set_drive_helper, ptr noundef nonnull @.str.42, ptr noundef %call38, ptr noundef %name, ptr noundef %12) #10
  br label %if.then50

if.then50:                                        ; preds = %fail, %if.end48, %if.else, %if.then46, %cond.end
  %blk.152 = phi ptr [ null, %fail ], [ %call29, %cond.end ], [ %blk.04857, %if.then46 ], [ %blk.04857, %if.else ], [ %call29, %if.end48 ]
  call void @blk_unref(ptr noundef %blk.152) #10
  br label %if.end51

if.end51.critedge:                                ; preds = %if.then22
  %call38.c = call ptr @object_get_typename(ptr noundef %call.i) #10
  %13 = load ptr, ptr %str, align 8
  call void (ptr, ptr, i32, ptr, ptr, ...) @error_setg_internal(ptr noundef %errp, ptr noundef nonnull @.str.9, i32 noundef 162, ptr noundef nonnull @__func__.set_drive_helper, ptr noundef nonnull @.str.42, ptr noundef %call38.c, ptr noundef %name, ptr noundef %13) #10
  br label %if.end51

if.end51:                                         ; preds = %if.end51.critedge, %if.end48.thread, %if.else, %if.then46, %if.then50
  %14 = load ptr, ptr %str, align 8
  call void @g_free(ptr noundef %14) #10
  br label %return

return:                                           ; preds = %check_prop_still_unset.exit, %if.then6, %entry, %if.end51, %if.then18, %if.end14
  ret void
}